target datalayout = "e-m:e-p270:32:32-p271:32:32-p272:64:64-i64:64-i128:128-f80:128-n8:16:32:64-S128"
target triple = "x86_64-pc-linux-gnu"

%"struct.ozz::math::Box" = type { %"struct.ozz::math::Float3", %"struct.ozz::math::Float3" }
%"struct.ozz::math::Float3" = type { float, float, float }

; Function Attrs: mustprogress nounwind uwtable
define linkonce_odr dso_local noundef ptr @_ZN3ozz13PointerStrideIKNS_4math6Float3EEEPT_S5_m(ptr noundef %0, i64 noundef %1) #1 comdat {
  %3 = alloca ptr, align 8
  %4 = alloca i64, align 8
  store ptr %0, ptr %3, align 8
  store i64 %1, ptr %4, align 8
  %5 = load ptr, ptr %3, align 8
  %6 = ptrtoint ptr %5 to i64
  %7 = load i64, ptr %4, align 8
  %8 = add i64 %6, %7
  %9 = inttoptr i64 %8 to ptr
  ret ptr %9
}

; Function Attrs: mustprogress nounwind uwtable
define linkonce_odr dso_local noundef float @_ZNSt14numeric_limitsIfE3maxEv() #1 comdat align 2 {
  ret float 0x47EFFFFFE0000000
}

; Function Attrs: mustprogress uwtable
define dso_local void @_ZN3ozz4math3BoxC2EPKNS0_6Float3Emm(ptr noundef nonnull align 4 dereferenceable(24) %0, ptr noundef %1, i64 noundef %2, i64 noundef %3) unnamed_addr #2 align 2 {
  %5 = alloca ptr, align 8
  %6 = alloca float, align 4
  %7 = alloca float, align 4
  %8 = alloca float, align 4
  %9 = alloca ptr, align 8
  %10 = alloca float, align 4
  %11 = alloca float, align 4
  %12 = alloca float, align 4
  %13 = alloca %"struct.ozz::math::Float3", align 4
  %14 = alloca ptr, align 8
  %15 = alloca ptr, align 8
  %16 = alloca { <2 x float>, float }, align 8
  %17 = alloca %"struct.ozz::math::Float3", align 4
  %18 = alloca ptr, align 8
  %19 = alloca ptr, align 8
  %20 = alloca { <2 x float>, float }, align 8
  %21 = alloca ptr, align 8
  %22 = alloca ptr, align 8
  %23 = alloca ptr, align 8
  %24 = alloca float, align 4
  %25 = alloca ptr, align 8
  %26 = alloca float, align 4
  %27 = alloca ptr, align 8
  %28 = alloca ptr, align 8
  %29 = alloca i64, align 8
  %30 = alloca i64, align 8
  %31 = alloca %"struct.ozz::math::Float3", align 4
  %32 = alloca %"struct.ozz::math::Float3", align 4
  %33 = alloca ptr, align 8
  %34 = alloca %"struct.ozz::math::Float3", align 4
  %35 = alloca { <2 x float>, float }, align 8
  %36 = alloca %"struct.ozz::math::Float3", align 4
  %37 = alloca { <2 x float>, float }, align 8
  store ptr %0, ptr %27, align 8
  store ptr %1, ptr %28, align 8
  store i64 %2, ptr %29, align 8
  store i64 %3, ptr %30, align 8
  %38 = load ptr, ptr %27, align 8
  %39 = getelementptr inbounds %"struct.ozz::math::Box", ptr %38, i32 0, i32 0
  store ptr %39, ptr %22, align 8
  %40 = getelementptr inbounds %"struct.ozz::math::Box", ptr %38, i32 0, i32 1
  store ptr %40, ptr %21, align 8
  %41 = call noundef float @_ZNSt14numeric_limitsIfE3maxEv() #6
  store ptr %31, ptr %25, align 8
  store float %41, ptr %26, align 4
  %42 = load ptr, ptr %25, align 8
  %43 = load float, ptr %26, align 4
  store float %43, ptr %42, align 4
  %44 = getelementptr inbounds %"struct.ozz::math::Float3", ptr %42, i32 0, i32 1
  %45 = load float, ptr %26, align 4
  store float %45, ptr %44, align 4
  %46 = getelementptr inbounds %"struct.ozz::math::Float3", ptr %42, i32 0, i32 2
  %47 = load float, ptr %26, align 4
  store float %47, ptr %46, align 4
  %48 = call noundef float @_ZNSt14numeric_limitsIfE3maxEv() #6
  %49 = fneg float %48
  store ptr %32, ptr %23, align 8
  store float %49, ptr %24, align 4
  %50 = load ptr, ptr %23, align 8
  %51 = load float, ptr %24, align 4
  store float %51, ptr %50, align 4
  %52 = getelementptr inbounds %"struct.ozz::math::Float3", ptr %50, i32 0, i32 1
  %53 = load float, ptr %24, align 4
  store float %53, ptr %52, align 4
  %54 = getelementptr inbounds %"struct.ozz::math::Float3", ptr %50, i32 0, i32 2
  %55 = load float, ptr %24, align 4
  store float %55, ptr %54, align 4
  %56 = load ptr, ptr %28, align 8
  %57 = load i64, ptr %29, align 8
  %58 = load i64, ptr %30, align 8
  %59 = mul i64 %57, %58
  %60 = call noundef ptr @_ZN3ozz13PointerStrideIKNS_4math6Float3EEEPT_S5_m(ptr noundef %56, i64 noundef %59)
  store ptr %60, ptr %33, align 8
  br label %61

61:                                               ; preds = %176, %4
  %62 = load ptr, ptr %28, align 8
  %63 = load ptr, ptr %33, align 8
  %64 = icmp ult ptr %62, %63
  br i1 %64, label %65, label %180

65:                                               ; preds = %61
  %66 = load ptr, ptr %28, align 8
  store ptr %31, ptr %18, align 8
  store ptr %66, ptr %19, align 8
  %67 = load ptr, ptr %18, align 8
  %68 = load float, ptr %67, align 4
  %69 = load ptr, ptr %19, align 8
  %70 = load float, ptr %69, align 4
  %71 = fcmp olt float %68, %70
  br i1 %71, label %72, label %75

72:                                               ; preds = %65
  %73 = load ptr, ptr %18, align 8
  %74 = load float, ptr %73, align 4
  br label %78

75:                                               ; preds = %65
  %76 = load ptr, ptr %19, align 8
  %77 = load float, ptr %76, align 4
  br label %78

78:                                               ; preds = %75, %72
  %79 = phi float [ %74, %72 ], [ %77, %75 ]
  %80 = load ptr, ptr %18, align 8
  %81 = getelementptr inbounds %"struct.ozz::math::Float3", ptr %80, i32 0, i32 1
  %82 = load float, ptr %81, align 4
  %83 = load ptr, ptr %19, align 8
  %84 = getelementptr inbounds %"struct.ozz::math::Float3", ptr %83, i32 0, i32 1
  %85 = load float, ptr %84, align 4
  %86 = fcmp olt float %82, %85
  br i1 %86, label %87, label %91

87:                                               ; preds = %78
  %88 = load ptr, ptr %18, align 8
  %89 = getelementptr inbounds %"struct.ozz::math::Float3", ptr %88, i32 0, i32 1
  %90 = load float, ptr %89, align 4
  br label %95

91:                                               ; preds = %78
  %92 = load ptr, ptr %19, align 8
  %93 = getelementptr inbounds %"struct.ozz::math::Float3", ptr %92, i32 0, i32 1
  %94 = load float, ptr %93, align 4
  br label %95

95:                                               ; preds = %91, %87
  %96 = phi float [ %90, %87 ], [ %94, %91 ]
  %97 = load ptr, ptr %18, align 8
  %98 = getelementptr inbounds %"struct.ozz::math::Float3", ptr %97, i32 0, i32 2
  %99 = load float, ptr %98, align 4
  %100 = load ptr, ptr %19, align 8
  %101 = getelementptr inbounds %"struct.ozz::math::Float3", ptr %100, i32 0, i32 2
  %102 = load float, ptr %101, align 4
  %103 = fcmp olt float %99, %102
  br i1 %103, label %104, label %108

104:                                              ; preds = %95
  %105 = load ptr, ptr %18, align 8
  %106 = getelementptr inbounds %"struct.ozz::math::Float3", ptr %105, i32 0, i32 2
  %107 = load float, ptr %106, align 4
  br label %112

108:                                              ; preds = %95
  %109 = load ptr, ptr %19, align 8
  %110 = getelementptr inbounds %"struct.ozz::math::Float3", ptr %109, i32 0, i32 2
  %111 = load float, ptr %110, align 4
  br label %112

112:                                              ; preds = %108, %104
  %113 = phi float [ %107, %104 ], [ %111, %108 ]
  store ptr %17, ptr %5, align 8
  store float %79, ptr %6, align 4
  store float %96, ptr %7, align 4
  store float %113, ptr %8, align 4
  %114 = load ptr, ptr %5, align 8
  %115 = load float, ptr %6, align 4
  store float %115, ptr %114, align 4
  %116 = getelementptr inbounds %"struct.ozz::math::Float3", ptr %114, i32 0, i32 1
  %117 = load float, ptr %7, align 4
  store float %117, ptr %116, align 4
  %118 = getelementptr inbounds %"struct.ozz::math::Float3", ptr %114, i32 0, i32 2
  %119 = load float, ptr %8, align 4
  store float %119, ptr %118, align 4
  call void @llvm.memcpy.p0.p0.i64(ptr align 8 %20, ptr align 4 %17, i64 12, i1 false)
  %120 = load { <2 x float>, float }, ptr %20, align 8
  store { <2 x float>, float } %120, ptr %35, align 8
  call void @llvm.memcpy.p0.p0.i64(ptr align 4 %34, ptr align 8 %35, i64 12, i1 false)
  call void @llvm.memcpy.p0.p0.i64(ptr align 4 %31, ptr align 4 %34, i64 12, i1 false)
  %121 = load ptr, ptr %28, align 8
  store ptr %32, ptr %14, align 8
  store ptr %121, ptr %15, align 8
  %122 = load ptr, ptr %14, align 8
  %123 = load float, ptr %122, align 4
  %124 = load ptr, ptr %15, align 8
  %125 = load float, ptr %124, align 4
  %126 = fcmp ogt float %123, %125
  br i1 %126, label %127, label %130

127:                                              ; preds = %112
  %128 = load ptr, ptr %14, align 8
  %129 = load float, ptr %128, align 4
  br label %133

130:                                              ; preds = %112
  %131 = load ptr, ptr %15, align 8
  %132 = load float, ptr %131, align 4
  br label %133

133:                                              ; preds = %130, %127
  %134 = phi float [ %129, %127 ], [ %132, %130 ]
  %135 = load ptr, ptr %14, align 8
  %136 = getelementptr inbounds %"struct.ozz::math::Float3", ptr %135, i32 0, i32 1
  %137 = load float, ptr %136, align 4
  %138 = load ptr, ptr %15, align 8
  %139 = getelementptr inbounds %"struct.ozz::math::Float3", ptr %138, i32 0, i32 1
  %140 = load float, ptr %139, align 4
  %141 = fcmp ogt float %137, %140
  br i1 %141, label %142, label %146

142:                                              ; preds = %133
  %143 = load ptr, ptr %14, align 8
  %144 = getelementptr inbounds %"struct.ozz::math::Float3", ptr %143, i32 0, i32 1
  %145 = load float, ptr %144, align 4
  br label %150

146:                                              ; preds = %133
  %147 = load ptr, ptr %15, align 8
  %148 = getelementptr inbounds %"struct.ozz::math::Float3", ptr %147, i32 0, i32 1
  %149 = load float, ptr %148, align 4
  br label %150

150:                                              ; preds = %146, %142
  %151 = phi float [ %145, %142 ], [ %149, %146 ]
  %152 = load ptr, ptr %14, align 8
  %153 = getelementptr inbounds %"struct.ozz::math::Float3", ptr %152, i32 0, i32 2
  %154 = load float, ptr %153, align 4
  %155 = load ptr, ptr %15, align 8
  %156 = getelementptr inbounds %"struct.ozz::math::Float3", ptr %155, i32 0, i32 2
  %157 = load float, ptr %156, align 4
  %158 = fcmp ogt float %154, %157
  br i1 %158, label %159, label %163

159:                                              ; preds = %150
  %160 = load ptr, ptr %14, align 8
  %161 = getelementptr inbounds %"struct.ozz::math::Float3", ptr %160, i32 0, i32 2
  %162 = load float, ptr %161, align 4
  br label %167

163:                                              ; preds = %150
  %164 = load ptr, ptr %15, align 8
  %165 = getelementptr inbounds %"struct.ozz::math::Float3", ptr %164, i32 0, i32 2
  %166 = load float, ptr %165, align 4
  br label %167

167:                                              ; preds = %163, %159
  %168 = phi float [ %162, %159 ], [ %166, %163 ]
  store ptr %13, ptr %9, align 8
  store float %134, ptr %10, align 4
  store float %151, ptr %11, align 4
  store float %168, ptr %12, align 4
  %169 = load ptr, ptr %9, align 8
  %170 = load float, ptr %10, align 4
  store float %170, ptr %169, align 4
  %171 = getelementptr inbounds %"struct.ozz::math::Float3", ptr %169, i32 0, i32 1
  %172 = load float, ptr %11, align 4
  store float %172, ptr %171, align 4
  %173 = getelementptr inbounds %"struct.ozz::math::Float3", ptr %169, i32 0, i32 2
  %174 = load float, ptr %12, align 4
  store float %174, ptr %173, align 4
  call void @llvm.memcpy.p0.p0.i64(ptr align 8 %16, ptr align 4 %13, i64 12, i1 false)
  %175 = load { <2 x float>, float }, ptr %16, align 8
  store { <2 x float>, float } %175, ptr %37, align 8
  call void @llvm.memcpy.p0.p0.i64(ptr align 4 %36, ptr align 8 %37, i64 12, i1 false)
  call void @llvm.memcpy.p0.p0.i64(ptr align 4 %32, ptr align 4 %36, i64 12, i1 false)
  br label %176

176:                                              ; preds = %167
  %177 = load ptr, ptr %28, align 8
  %178 = load i64, ptr %29, align 8
  %179 = call noundef ptr @_ZN3ozz13PointerStrideIKNS_4math6Float3EEEPT_S5_m(ptr noundef %177, i64 noundef %178)
  store ptr %179, ptr %28, align 8
  br label %61, !llvm.loop !5

180:                                              ; preds = %61
  %181 = getelementptr inbounds %"struct.ozz::math::Box", ptr %38, i32 0, i32 0
  call void @llvm.memcpy.p0.p0.i64(ptr align 4 %181, ptr align 4 %31, i64 12, i1 false)
  %182 = getelementptr inbounds %"struct.ozz::math::Box", ptr %38, i32 0, i32 1
  call void @llvm.memcpy.p0.p0.i64(ptr align 4 %182, ptr align 4 %32, i64 12, i1 false)
  ret void
}