; Function Attrs: mustprogress nofree norecurse nosync nounwind memory(read, argmem: readwrite, inaccessiblemem: none) uwtable
define dso_local void @_ZN3ozz4math3BoxC2EPKNS0_6Float3Emm(ptr nocapture noundef nonnull writeonly align 4 dereferenceable(24) %0, ptr noundef %1, i64 noundef %2, i64 noundef %3) unnamed_addr #1 align 2 {
  %5 = mul i64 %3, %2
  %6 = ptrtoint ptr %1 to i64
  %7 = add i64 %5, %6
  %8 = inttoptr i64 %7 to ptr
  %9 = icmp ugt ptr %8, %1
  br i1 %9, label %.lr.ph, label %._crit_edge

.lr.ph:                                           ; preds = %4, %.lr.ph
  %.094 = phi ptr [ %23, %.lr.ph ], [ %1, %4 ]
  %.sroa.882.093 = phi float [ %13, %.lr.ph ], [ 0x47EFFFFFE0000000, %4 ]
  %.sroa.075.092 = phi <2 x float> [ %16, %.lr.ph ], [ <float 0x47EFFFFFE0000000, float 0x47EFFFFFE0000000>, %4 ]
  %.sroa.067.091 = phi <2 x float> [ %18, %.lr.ph ], [ <float 0xC7EFFFFFE0000000, float 0xC7EFFFFFE0000000>, %4 ]
  %.sroa.8.090 = phi float [ %20, %.lr.ph ], [ 0xC7EFFFFFE0000000, %4 ]
  %10 = getelementptr inbounds i8, ptr %.094, i64 8
  %11 = load float, ptr %10, align 4
  %12 = fcmp olt float %.sroa.882.093, %11
  %13 = select i1 %12, float %.sroa.882.093, float %11
  %14 = load <2 x float>, ptr %.094, align 4
  %15 = fcmp olt <2 x float> %.sroa.075.092, %14
  %16 = select <2 x i1> %15, <2 x float> %.sroa.075.092, <2 x float> %14
  %17 = fcmp ogt <2 x float> %.sroa.067.091, %14
  %18 = select <2 x i1> %17, <2 x float> %.sroa.067.091, <2 x float> %14
  %19 = fcmp ogt float %.sroa.8.090, %11
  %20 = select i1 %19, float %.sroa.8.090, float %11
  %21 = ptrtoint ptr %.094 to i64
  %22 = add i64 %21, %2
  %23 = inttoptr i64 %22 to ptr
  %24 = icmp ult ptr %23, %8
  br i1 %24, label %.lr.ph, label %._crit_edge, !llvm.loop !5

._crit_edge:                                      ; preds = %.lr.ph, %4
  %.sroa.8.0.lcssa = phi float [ 0xC7EFFFFFE0000000, %4 ], [ %20, %.lr.ph ]
  %.sroa.067.0.lcssa = phi <2 x float> [ <float 0xC7EFFFFFE0000000, float 0xC7EFFFFFE0000000>, %4 ], [ %18, %.lr.ph ]
  %.sroa.075.0.lcssa = phi <2 x float> [ <float 0x47EFFFFFE0000000, float 0x47EFFFFFE0000000>, %4 ], [ %16, %.lr.ph ]
  %.sroa.882.0.lcssa = phi float [ 0x47EFFFFFE0000000, %4 ], [ %13, %.lr.ph ]
  store <2 x float> %.sroa.075.0.lcssa, ptr %0, align 4
  %.sroa.882.0..sroa_idx = getelementptr inbounds i8, ptr %0, i64 8
  store float %.sroa.882.0.lcssa, ptr %.sroa.882.0..sroa_idx, align 4
  %25 = getelementptr inbounds i8, ptr %0, i64 12
  store <2 x float> %.sroa.067.0.lcssa, ptr %25, align 4
  %.sroa.8.0..sroa_idx = getelementptr inbounds i8, ptr %0, i64 20
  store float %.sroa.8.0.lcssa, ptr %.sroa.8.0..sroa_idx, align 4
  ret void
}